; Function Attrs: mustprogress uwtable
define void @_ZN6icu_7514SearchIteratorC2ERKS0_(ptr noundef nonnull align 8 dereferenceable(88) %this, ptr noundef nonnull align 8 dereferenceable(88) %other) unnamed_addr #0 align 2 personality ptr @__gxx_personality_v0 {
invoke.cont:
  store ptr getelementptr inbounds ({ [16 x ptr] }, ptr @_ZTVN6icu_7514SearchIteratorE, i64 0, i32 0, i64 2), ptr %this, align 8
  %m_text_ = getelementptr inbounds i8, ptr %this, i64 24
  store ptr getelementptr inbounds ({ [13 x ptr] }, ptr @_ZTVN6icu_7513UnicodeStringE, i64 0, i32 0, i64 2), ptr %m_text_, align 8
  %fUnion2.i = getelementptr inbounds i8, ptr %this, i64 32
  store i16 2, ptr %fUnion2.i, align 8
  %m_breakiterator_ = getelementptr inbounds i8, ptr %other, i64 16
  %0 = load ptr, ptr %m_breakiterator_, align 8
  %m_breakiterator_2 = getelementptr inbounds i8, ptr %this, i64 16
  store ptr %0, ptr %m_breakiterator_2, align 8
  %m_text_3 = getelementptr inbounds i8, ptr %other, i64 24
  %call = invoke noundef nonnull align 8 dereferenceable(64) ptr @_ZN6icu_7513UnicodeStringaSERKS0_(ptr noundef nonnull align 8 dereferenceable(64) %m_text_, ptr noundef nonnull align 8 dereferenceable(64) %m_text_3)
          to label %invoke.cont6 unwind label %lpad5

invoke.cont6:                                     ; preds = %invoke.cont
  %call8 = invoke noalias dereferenceable_or_null(48) ptr @uprv_malloc_75(i64 noundef 48) #14
          to label %invoke.cont7 unwind label %lpad5

invoke.cont7:                                     ; preds = %invoke.cont6
  %m_search_ = getelementptr inbounds i8, ptr %this, i64 8
  store ptr %call8, ptr %m_search_, align 8
  %m_search_9 = getelementptr inbounds i8, ptr %other, i64 8
  %1 = load ptr, ptr %m_search_9, align 8
  %breakIter = getelementptr inbounds i8, ptr %1, i64 24
  %2 = load ptr, ptr %breakIter, align 8
  %breakIter11 = getelementptr inbounds i8, ptr %call8, i64 24
  store ptr %2, ptr %breakIter11, align 8
  %isCanonicalMatch = getelementptr inbounds i8, ptr %1, i64 13
  %3 = load i8, ptr %isCanonicalMatch, align 1
  %isCanonicalMatch14 = getelementptr inbounds i8, ptr %call8, i64 13
  store i8 %3, ptr %isCanonicalMatch14, align 1
  %isOverlap = getelementptr inbounds i8, ptr %1, i64 12
  %4 = load i8, ptr %isOverlap, align 4
  %isOverlap17 = getelementptr inbounds i8, ptr %call8, i64 12
  store i8 %4, ptr %isOverlap17, align 4
  %elementComparisonType = getelementptr inbounds i8, ptr %1, i64 14
  %5 = load i16, ptr %elementComparisonType, align 2
  %elementComparisonType20 = getelementptr inbounds i8, ptr %call8, i64 14
  store i16 %5, ptr %elementComparisonType20, align 2
  %matchedIndex = getelementptr inbounds i8, ptr %1, i64 32
  %6 = load i32, ptr %matchedIndex, align 8
  %matchedIndex23 = getelementptr inbounds i8, ptr %call8, i64 32
  store i32 %6, ptr %matchedIndex23, align 8
  %matchedLength = getelementptr inbounds i8, ptr %1, i64 36
  %7 = load i32, ptr %matchedLength, align 4
  %matchedLength26 = getelementptr inbounds i8, ptr %call8, i64 36
  store i32 %7, ptr %matchedLength26, align 4
  %8 = load ptr, ptr %1, align 8
  store ptr %8, ptr %call8, align 8
  %textLength = getelementptr inbounds i8, ptr %1, i64 8
  %9 = load i32, ptr %textLength, align 8
  %textLength32 = getelementptr inbounds i8, ptr %call8, i64 8
  store i32 %9, ptr %textLength32, align 8
  ret void

lpad5:                                            ; preds = %invoke.cont6, %invoke.cont
  %10 = landingpad { ptr, i32 }
          cleanup
  tail call void @_ZN6icu_7513UnicodeStringD1Ev(ptr noundef nonnull align 8 dereferenceable(64) %m_text_) #15
  tail call void @_ZN6icu_757UObjectD2Ev(ptr noundef nonnull align 8 dereferenceable(8) %this) #15
  resume { ptr, i32 } %10
}